target datalayout = "e-m:e-p270:32:32-p271:32:32-p272:64:64-i64:64-i128:128-f80:128-n8:16:32:64-S128"
target triple = "x86_64-pc-linux-gnu"

%struct.PlatformTarget = type { ptr, i32, ptr, ptr, i32, i32, i32, i32, i32, i32, i32, [7 x %struct.AlignData], [7 x %struct.AlignData], [7 x %struct.AlignData], i32, i16, %union.anon.85, i8, i8, i8, i8, i8, i8, i8, i8, i8, i8, %struct.AlignData, i32, i32, i32, i32, i32, i32, i32, i32, i32, i32, i32, i32, i32, i32, i32, i32, ptr }
%union.anon.85 = type { %struct.anon.87 }
%struct.anon.87 = type { %struct.X86Features, i32, i32 }
%struct.X86Features = type { [2 x i64], ptr }
%struct.AlignData = type { i32, i32 }

@platform_target = external global %struct.PlatformTarget, align 8
@type_ushort = external global ptr, align 8
@type_uint = external global ptr, align 8

; Function Attrs: nounwind uwtable
define dso_local ptr @aarch64_coerce_illegal_vector(ptr noundef %0) #0 {
  %2 = alloca ptr, align 8
  %3 = alloca ptr, align 8
  %4 = alloca i32, align 4
  store ptr %0, ptr %3, align 8
  %5 = load ptr, ptr %3, align 8
  %6 = call i32 @type_size(ptr noundef %5)
  store i32 %6, ptr %4, align 4
  %7 = load i32, ptr getelementptr inbounds (%struct.PlatformTarget, ptr @platform_target, i32 0, i32 7), align 4
  %8 = icmp eq i32 %7, 12
  br i1 %8, label %9, label %15

9:                                                ; preds = %1
  %10 = load i32, ptr %4, align 4
  %11 = icmp ule i32 %10, 2
  br i1 %11, label %12, label %15

12:                                               ; preds = %9
  %13 = load ptr, ptr @type_ushort, align 8
  %14 = call ptr @abi_arg_new_direct_coerce_type(ptr noundef %13)
  store ptr %14, ptr %2, align 8
  br label %38

15:                                               ; preds = %9, %1
  %16 = load i32, ptr %4, align 4
  %17 = icmp ule i32 %16, 4
  br i1 %17, label %18, label %21

18:                                               ; preds = %15
  %19 = load ptr, ptr @type_uint, align 8
  %20 = call ptr @abi_arg_new_direct_coerce_type(ptr noundef %19)
  store ptr %20, ptr %2, align 8
  br label %38

21:                                               ; preds = %15
  %22 = load i32, ptr %4, align 4
  %23 = icmp ule i32 %22, 8
  br i1 %23, label %24, label %28

24:                                               ; preds = %21
  %25 = load ptr, ptr @type_uint, align 8
  %26 = call ptr @type_get_vector(ptr noundef %25, i32 noundef 2)
  %27 = call ptr @abi_arg_new_direct_coerce_type(ptr noundef %26)
  store ptr %27, ptr %2, align 8
  br label %38

28:                                               ; preds = %21
  %29 = load i32, ptr %4, align 4
  %30 = icmp eq i32 %29, 128
  br i1 %30, label %31, label %35

31:                                               ; preds = %28
  %32 = load ptr, ptr @type_uint, align 8
  %33 = call ptr @type_get_vector(ptr noundef %32, i32 noundef 4)
  %34 = call ptr @abi_arg_new_direct_coerce_type(ptr noundef %33)
  store ptr %34, ptr %2, align 8
  br label %38

35:                                               ; preds = %28
  %36 = load ptr, ptr %3, align 8
  %37 = call ptr @abi_arg_new_indirect_not_by_val(ptr noundef %36)
  store ptr %37, ptr %2, align 8
  br label %38

38:                                               ; preds = %35, %31, %24, %18, %12
  %39 = load ptr, ptr %2, align 8
  ret ptr %39
}