; Function Attrs: nounwind uwtable
define dso_local ptr @aarch64_coerce_illegal_vector(ptr noundef %0) local_unnamed_addr #0 {
  %2 = tail call i32 @type_size(ptr noundef %0) #4
  %3 = load i32, ptr getelementptr inbounds (%struct.PlatformTarget, ptr @platform_target, i64 0, i32 7), align 4
  %4 = icmp eq i32 %3, 12
  %5 = icmp ult i32 %2, 3
  %or.cond = select i1 %4, i1 %5, i1 false
  br i1 %or.cond, label %6, label %9

6:                                                ; preds = %1
  %7 = load ptr, ptr @type_ushort, align 8
  %8 = tail call ptr @abi_arg_new_direct_coerce_type(ptr noundef %7) #4
  br label %28

9:                                                ; preds = %1
  %10 = icmp ult i32 %2, 5
  br i1 %10, label %11, label %14

11:                                               ; preds = %9
  %12 = load ptr, ptr @type_uint, align 8
  %13 = tail call ptr @abi_arg_new_direct_coerce_type(ptr noundef %12) #4
  br label %28

14:                                               ; preds = %9
  %15 = icmp ult i32 %2, 9
  br i1 %15, label %16, label %20

16:                                               ; preds = %14
  %17 = load ptr, ptr @type_uint, align 8
  %18 = tail call ptr @type_get_vector(ptr noundef %17, i32 noundef 2) #4
  %19 = tail call ptr @abi_arg_new_direct_coerce_type(ptr noundef %18) #4
  br label %28

20:                                               ; preds = %14
  %21 = icmp eq i32 %2, 128
  br i1 %21, label %22, label %26

22:                                               ; preds = %20
  %23 = load ptr, ptr @type_uint, align 8
  %24 = tail call ptr @type_get_vector(ptr noundef %23, i32 noundef 4) #4
  %25 = tail call ptr @abi_arg_new_direct_coerce_type(ptr noundef %24) #4
  br label %28

26:                                               ; preds = %20
  %27 = tail call ptr @abi_arg_new_indirect_not_by_val(ptr noundef %0) #4
  br label %28

28:                                               ; preds = %26, %22, %16, %11, %6
  %.0 = phi ptr [ %8, %6 ], [ %13, %11 ], [ %19, %16 ], [ %25, %22 ], [ %27, %26 ]
  ret ptr %.0
}